; Function Attrs: nounwind uwtable
define noalias ptr @avio_alloc_context(ptr noundef %0, i32 noundef %1, i32 noundef %2, ptr noundef %3, ptr noundef %4, ptr noundef %5, ptr noundef %6) local_unnamed_addr #3 {
  %8 = tail call noalias ptr @av_malloc(i64 noundef 280) #14
  %.not = icmp eq ptr %8, null
  br i1 %.not, label %36, label %9

9:                                                ; preds = %7
  tail call void @llvm.memset.p0.i64(ptr noundef nonnull align 8 dereferenceable(280) %8, i8 0, i64 280, i1 false)
  %10 = getelementptr inbounds nuw i8, ptr %8, i64 8
  store ptr %0, ptr %10, align 8, !tbaa !4
  %11 = getelementptr inbounds nuw i8, ptr %8, i64 16
  store i32 %1, ptr %11, align 8, !tbaa !13
  %12 = getelementptr inbounds nuw i8, ptr %8, i64 264
  store i32 %1, ptr %12, align 8, !tbaa !14
  %13 = getelementptr inbounds nuw i8, ptr %8, i64 24
  store ptr %0, ptr %13, align 8, !tbaa !16
  %14 = getelementptr inbounds nuw i8, ptr %8, i64 184
  store ptr %0, ptr %14, align 8, !tbaa !17
  %15 = getelementptr inbounds nuw i8, ptr %8, i64 40
  store ptr %3, ptr %15, align 8, !tbaa !18
  %16 = icmp ne i32 %2, 0
  %narrow.i = select i1 %16, i32 %1, i32 0
  %.sink7.i.idx.i = sext i32 %narrow.i to i64
  %.sink7.i.i = getelementptr inbounds i8, ptr %0, i64 %.sink7.i.idx.i
  %.sink.i.i = zext i1 %16 to i32
  %17 = getelementptr inbounds nuw i8, ptr %8, i64 32
  store ptr %.sink7.i.i, ptr %17, align 8, !tbaa !19
  %18 = getelementptr inbounds nuw i8, ptr %8, i64 88
  store i32 %.sink.i.i, ptr %18, align 8, !tbaa !20
  %19 = getelementptr inbounds nuw i8, ptr %8, i64 56
  store ptr %5, ptr %19, align 8, !tbaa !21
  %20 = getelementptr inbounds nuw i8, ptr %8, i64 48
  store ptr %4, ptr %20, align 8, !tbaa !22
  %21 = getelementptr inbounds nuw i8, ptr %8, i64 64
  store ptr %6, ptr %21, align 8, !tbaa !23
  %22 = getelementptr inbounds nuw i8, ptr %8, i64 72
  %.not.i = icmp ne ptr %6, null
  %23 = zext i1 %.not.i to i32
  %24 = getelementptr inbounds nuw i8, ptr %8, i64 144
  tail call void @llvm.memset.p0.i64(ptr noundef nonnull align 8 dereferenceable(16) %22, i8 0, i64 16, i1 false)
  store i32 %23, ptr %24, align 8, !tbaa !24
  %25 = getelementptr inbounds nuw i8, ptr %8, i64 216
  store i32 32768, ptr %25, align 8, !tbaa !26
  %26 = icmp ne ptr %4, null
  %or.cond.i = or i1 %16, %26
  br i1 %or.cond.i, label %ffio_init_context.exit, label %27

27:                                               ; preds = %9
  %28 = sext i32 %1 to i64
  store i64 %28, ptr %22, align 8, !tbaa !27
  %29 = getelementptr inbounds i8, ptr %0, i64 %28
  store ptr %29, ptr %17, align 8, !tbaa !19
  br label %ffio_init_context.exit

ffio_init_context.exit:                           ; preds = %9, %27
  %30 = getelementptr inbounds nuw i8, ptr %8, i64 128
  %31 = getelementptr inbounds nuw i8, ptr %8, i64 168
  store ptr null, ptr %31, align 8, !tbaa !28
  %32 = getelementptr inbounds nuw i8, ptr %8, i64 176
  store i32 0, ptr %32, align 8, !tbaa !29
  %33 = getelementptr inbounds nuw i8, ptr %8, i64 220
  tail call void @llvm.memset.p0.i64(ptr noundef nonnull align 8 dereferenceable(16) %30, i8 0, i64 16, i1 false)
  store i32 3, ptr %33, align 4, !tbaa !30
  %34 = getelementptr inbounds nuw i8, ptr %8, i64 224
  store i64 -9223372036854775808, ptr %34, align 8, !tbaa !31
  %35 = getelementptr inbounds nuw i8, ptr %8, i64 208
  store ptr null, ptr %35, align 8, !tbaa !32
  br label %36

36:                                               ; preds = %7, %ffio_init_context.exit
  ret ptr %8
}